target datalayout = "e-m:e-p270:32:32-p271:32:32-p272:64:64-i64:64-i128:128-f80:128-n8:16:32:64-S128"
target triple = "x86_64-pc-linux-gnu"

%struct.deal = type { i32, i32, [3 x i32], [3 x i32], [4 x [4 x i32]] }
%struct.playTraceBin = type { i32, [52 x i32], [52 x i32] }
%struct.dealPBN = type { i32, i32, [3 x i32], [3 x i32], [80 x i8] }
%struct.playTracePBN = type { i32, [106 x i8] }

; Function Attrs: mustprogress uwtable
define i32 @AnalysePlayPBN(ptr noundef byval(%struct.dealPBN) align 8 %0, ptr noundef byval(%struct.playTracePBN) align 8 %1, ptr noundef %2, i32 noundef %3) #4 {
  %5 = alloca i32, align 4
  %6 = alloca ptr, align 8
  %7 = alloca i32, align 4
  %8 = alloca %struct.deal, align 4
  %9 = alloca %struct.playTraceBin, align 4
  %10 = alloca i32, align 4
  %11 = alloca %struct.deal, align 8
  %12 = alloca %struct.playTraceBin, align 8
  store ptr %2, ptr %6, align 8
  store i32 %3, ptr %7, align 4
  %13 = getelementptr inbounds nuw %struct.dealPBN, ptr %0, i32 0, i32 4
  %14 = getelementptr inbounds [80 x i8], ptr %13, i64 0, i64 0
  %15 = getelementptr inbounds nuw %struct.deal, ptr %8, i32 0, i32 4
  %16 = getelementptr inbounds [4 x [4 x i32]], ptr %15, i64 0, i64 0
  %17 = call noundef i32 @_Z14ConvertFromPBNPKcPA4_j(ptr noundef %14, ptr noundef %16)
  %18 = icmp ne i32 %17, 1
  br i1 %18, label %19, label %20

19:                                               ; preds = %4
  store i32 -99, ptr %5, align 4
  br label %60

20:                                               ; preds = %4
  %21 = getelementptr inbounds nuw %struct.dealPBN, ptr %0, i32 0, i32 1
  %22 = load i32, ptr %21, align 4
  %23 = getelementptr inbounds nuw %struct.deal, ptr %8, i32 0, i32 1
  store i32 %22, ptr %23, align 4
  %24 = getelementptr inbounds nuw %struct.dealPBN, ptr %0, i32 0, i32 0
  %25 = load i32, ptr %24, align 8
  %26 = getelementptr inbounds nuw %struct.deal, ptr %8, i32 0, i32 0
  store i32 %25, ptr %26, align 4
  store i32 0, ptr %10, align 4
  br label %27

27:                                               ; preds = %49, %20
  %28 = load i32, ptr %10, align 4
  %29 = icmp sle i32 %28, 2
  br i1 %29, label %30, label %52

30:                                               ; preds = %27
  %31 = getelementptr inbounds nuw %struct.dealPBN, ptr %0, i32 0, i32 2
  %32 = load i32, ptr %10, align 4
  %33 = sext i32 %32 to i64
  %34 = getelementptr inbounds [3 x i32], ptr %31, i64 0, i64 %33
  %35 = load i32, ptr %34, align 4
  %36 = getelementptr inbounds nuw %struct.deal, ptr %8, i32 0, i32 2
  %37 = load i32, ptr %10, align 4
  %38 = sext i32 %37 to i64
  %39 = getelementptr inbounds [3 x i32], ptr %36, i64 0, i64 %38
  store i32 %35, ptr %39, align 4
  %40 = getelementptr inbounds nuw %struct.dealPBN, ptr %0, i32 0, i32 3
  %41 = load i32, ptr %10, align 4
  %42 = sext i32 %41 to i64
  %43 = getelementptr inbounds [3 x i32], ptr %40, i64 0, i64 %42
  %44 = load i32, ptr %43, align 4
  %45 = getelementptr inbounds nuw %struct.deal, ptr %8, i32 0, i32 3
  %46 = load i32, ptr %10, align 4
  %47 = sext i32 %46 to i64
  %48 = getelementptr inbounds [3 x i32], ptr %45, i64 0, i64 %47
  store i32 %44, ptr %48, align 4
  br label %49

49:                                               ; preds = %30
  %50 = load i32, ptr %10, align 4
  %51 = add nsw i32 %50, 1
  store i32 %51, ptr %10, align 4
  br label %27, !llvm.loop !7

52:                                               ; preds = %27
  %53 = call noundef i32 @_Z18ConvertPlayFromPBNRK12playTracePBNR12playTraceBin(ptr noundef nonnull align 4 dereferenceable(112) %1, ptr noundef nonnull align 4 dereferenceable(420) %9)
  %54 = icmp ne i32 %53, 1
  br i1 %54, label %55, label %56

55:                                               ; preds = %52
  store i32 -98, ptr %5, align 4
  br label %60

56:                                               ; preds = %52
  call void @llvm.memcpy.p0.p0.i64(ptr align 4 %11, ptr align 4 %8, i64 96, i1 false)
  call void @llvm.memcpy.p0.p0.i64(ptr align 4 %12, ptr align 4 %9, i64 420, i1 false)
  %57 = load ptr, ptr %6, align 8
  %58 = load i32, ptr %7, align 4
  %59 = call i32 @AnalysePlayBin(ptr noundef byval(%struct.deal) align 8 %11, ptr noundef byval(%struct.playTraceBin) align 8 %12, ptr noundef %57, i32 noundef %58)
  store i32 %59, ptr %5, align 4
  br label %60

60:                                               ; preds = %56, %55, %19
  %61 = load i32, ptr %5, align 4
  ret i32 %61
}