; Function Attrs: mustprogress uwtable
define noundef i32 @AnalysePlayPBN(ptr noundef byval(%struct.dealPBN) align 8 %0, ptr noundef byval(%struct.playTracePBN) align 8 %1, ptr nocapture noundef writeonly %2, i32 noundef %3) local_unnamed_addr #3 {
  %5 = alloca %struct.deal, align 8
  %6 = alloca %struct.playTraceBin, align 8
  %7 = getelementptr inbounds nuw i8, ptr %0, i64 32
  %8 = getelementptr inbounds nuw i8, ptr %5, i64 32
  %9 = call noundef i32 @_Z14ConvertFromPBNPKcPA4_j(ptr noundef nonnull %7, ptr noundef nonnull %8)
  %.not = icmp eq i32 %9, 1
  br i1 %.not, label %10, label %22

10:                                               ; preds = %4
  %11 = getelementptr inbounds nuw i8, ptr %0, i64 4
  %12 = load i32, ptr %11, align 4
  %13 = getelementptr inbounds nuw i8, ptr %5, i64 4
  store i32 %12, ptr %13, align 4
  %14 = load i32, ptr %0, align 8
  store i32 %14, ptr %5, align 8
  %15 = getelementptr inbounds nuw i8, ptr %0, i64 8
  %16 = getelementptr inbounds nuw i8, ptr %5, i64 8
  %17 = getelementptr inbounds nuw i8, ptr %0, i64 20
  %18 = getelementptr inbounds nuw i8, ptr %5, i64 20
  call void @llvm.memcpy.p0.p0.i64(ptr noundef nonnull align 8 dereferenceable(12) %16, ptr noundef nonnull align 8 dereferenceable(12) %15, i64 12, i1 false)
  call void @llvm.memcpy.p0.p0.i64(ptr noundef nonnull align 4 dereferenceable(12) %18, ptr noundef nonnull align 4 dereferenceable(12) %17, i64 12, i1 false)
  %19 = call noundef i32 @_Z18ConvertPlayFromPBNRK12playTracePBNR12playTraceBin(ptr noundef nonnull align 4 dereferenceable(112) %1, ptr noundef nonnull align 4 dereferenceable(420) %6)
  %.not9 = icmp eq i32 %19, 1
  br i1 %.not9, label %20, label %22

20:                                               ; preds = %10
  %21 = call i32 @AnalysePlayBin(ptr noundef nonnull byval(%struct.deal) align 8 %5, ptr noundef nonnull byval(%struct.playTraceBin) align 8 %6, ptr noundef %2, i32 noundef %3)
  br label %22

22:                                               ; preds = %10, %4, %20
  %.08 = phi i32 [ %21, %20 ], [ -99, %4 ], [ -98, %10 ]
  ret i32 %.08
}